target datalayout = "e-m:e-p270:32:32-p271:32:32-p272:64:64-i64:64-i128:128-f80:128-n8:16:32:64-S128"
target triple = "x86_64-pc-linux-gnu"

%"class.btSoftBody::DeformableRigidContact" = type { %"struct.btSoftBody::sCti", %class.btMatrix3x3, %class.btVector3, float, float, float, %class.btMatrix3x3, [4 x i8], %struct.btMultiBodyJacobianData, %struct.btMultiBodyJacobianData, %struct.btMultiBodyJacobianData, %class.btVector3, %class.btVector3 }
%"struct.btSoftBody::sCti" = type <{ ptr, %class.btVector3, %class.btVector3, float, %class.btVector3, [4 x i8] }>
%class.btMatrix3x3 = type { [3 x %class.btVector3] }
%struct.btMultiBodyJacobianData = type <{ %class.btAlignedObjectArray, %class.btAlignedObjectArray, %class.btAlignedObjectArray, %class.btAlignedObjectArray, %class.btAlignedObjectArray.0, %class.btAlignedObjectArray.2, ptr, i32, [4 x i8] }>
%class.btAlignedObjectArray = type <{ [4 x i8], i32, i32, [4 x i8], ptr, i8, [7 x i8] }>
%class.btAlignedObjectArray.0 = type <{ [4 x i8], i32, i32, [4 x i8], ptr, i8, [7 x i8] }>
%class.btAlignedObjectArray.2 = type <{ [4 x i8], i32, i32, [4 x i8], ptr, i8, [7 x i8] }>
%class.btVector3 = type { [4 x float] }
%class.btDeformableContactConstraint = type { ptr, i8, ptr, %class.btVector3 }
%"struct.btSoftBody::Node" = type <{ %"struct.btSoftBody::Feature", %class.btVector3, %class.btVector3, %class.btVector3, %class.btVector3, %class.btVector3, %class.btVector3, float, float, ptr, i32, i8, [3 x i8], i32, %class.btVector3, %class.btMatrix3x3, %class.btMatrix3x3, [4 x i8] }>
%"struct.btSoftBody::Feature" = type { %"struct.btSoftBody::Element", ptr }
%"struct.btSoftBody::Element" = type { ptr }
%class.btDeformableRigidContactConstraint = type { %class.btDeformableContactConstraint, %class.btVector3, %class.btVector3, float, float, i8, ptr }
%"class.btSoftBody::DeformableFaceRigidContact" = type { %"class.btSoftBody::DeformableRigidContact", ptr, %class.btVector3, %class.btVector3, %class.btVector3 }
%"struct.btSoftBody::Face" = type <{ %"struct.btSoftBody::Feature", [3 x ptr], %class.btVector3, float, [4 x i8], ptr, %class.btVector4, %class.btVector3, %class.btVector3, %class.btVector3, i32, [4 x i8] }>
%class.btVector4 = type { %class.btVector3 }

; Function Attrs: inlinehint mustprogress nounwind uwtable
define linkonce_odr dso_local void @_ZN9btVector3C2ERKfS1_S1_(ptr noundef nonnull align 4 dereferenceable(16) %0, ptr noundef nonnull align 4 dereferenceable(4) %1, ptr noundef nonnull align 4 dereferenceable(4) %2, ptr noundef nonnull align 4 dereferenceable(4) %3) unnamed_addr #5 comdat align 2 {
  %5 = alloca ptr, align 8
  %6 = alloca ptr, align 8
  %7 = alloca ptr, align 8
  %8 = alloca ptr, align 8
  store ptr %0, ptr %5, align 8, !tbaa !27
  store ptr %1, ptr %6, align 8, !tbaa !56
  store ptr %2, ptr %7, align 8, !tbaa !56
  store ptr %3, ptr %8, align 8, !tbaa !56
  %9 = load ptr, ptr %5, align 8
  %10 = load ptr, ptr %6, align 8, !tbaa !56
  %11 = load float, ptr %10, align 4, !tbaa !36
  %12 = getelementptr inbounds nuw %class.btVector3, ptr %9, i32 0, i32 0
  %13 = getelementptr inbounds [4 x float], ptr %12, i64 0, i64 0
  store float %11, ptr %13, align 4, !tbaa !36
  %14 = load ptr, ptr %7, align 8, !tbaa !56
  %15 = load float, ptr %14, align 4, !tbaa !36
  %16 = getelementptr inbounds nuw %class.btVector3, ptr %9, i32 0, i32 0
  %17 = getelementptr inbounds [4 x float], ptr %16, i64 0, i64 1
  store float %15, ptr %17, align 4, !tbaa !36
  %18 = load ptr, ptr %8, align 8, !tbaa !56
  %19 = load float, ptr %18, align 4, !tbaa !36
  %20 = getelementptr inbounds nuw %class.btVector3, ptr %9, i32 0, i32 0
  %21 = getelementptr inbounds [4 x float], ptr %20, i64 0, i64 2
  store float %19, ptr %21, align 4, !tbaa !36
  %22 = getelementptr inbounds nuw %class.btVector3, ptr %9, i32 0, i32 0
  %23 = getelementptr inbounds [4 x float], ptr %22, i64 0, i64 3
  store float 0.000000e+00, ptr %23, align 4, !tbaa !36
  ret void
}

; Function Attrs: inlinehint mustprogress nounwind uwtable
define linkonce_odr dso_local noundef nonnull align 4 dereferenceable(16) ptr @_ZN9btVector3mIERKS_(ptr noundef nonnull align 4 dereferenceable(16) %0, ptr noundef nonnull align 4 dereferenceable(16) %1) #5 comdat align 2 {
  %3 = alloca ptr, align 8
  %4 = alloca ptr, align 8
  store ptr %0, ptr %3, align 8, !tbaa !27
  store ptr %1, ptr %4, align 8, !tbaa !27
  %5 = load ptr, ptr %3, align 8
  %6 = load ptr, ptr %4, align 8, !tbaa !27
  %7 = getelementptr inbounds nuw %class.btVector3, ptr %6, i32 0, i32 0
  %8 = getelementptr inbounds [4 x float], ptr %7, i64 0, i64 0
  %9 = load float, ptr %8, align 4, !tbaa !36
  %10 = getelementptr inbounds nuw %class.btVector3, ptr %5, i32 0, i32 0
  %11 = getelementptr inbounds [4 x float], ptr %10, i64 0, i64 0
  %12 = load float, ptr %11, align 4, !tbaa !36
  %13 = fsub float %12, %9
  store float %13, ptr %11, align 4, !tbaa !36
  %14 = load ptr, ptr %4, align 8, !tbaa !27
  %15 = getelementptr inbounds nuw %class.btVector3, ptr %14, i32 0, i32 0
  %16 = getelementptr inbounds [4 x float], ptr %15, i64 0, i64 1
  %17 = load float, ptr %16, align 4, !tbaa !36
  %18 = getelementptr inbounds nuw %class.btVector3, ptr %5, i32 0, i32 0
  %19 = getelementptr inbounds [4 x float], ptr %18, i64 0, i64 1
  %20 = load float, ptr %19, align 4, !tbaa !36
  %21 = fsub float %20, %17
  store float %21, ptr %19, align 4, !tbaa !36
  %22 = load ptr, ptr %4, align 8, !tbaa !27
  %23 = getelementptr inbounds nuw %class.btVector3, ptr %22, i32 0, i32 0
  %24 = getelementptr inbounds [4 x float], ptr %23, i64 0, i64 2
  %25 = load float, ptr %24, align 4, !tbaa !36
  %26 = getelementptr inbounds nuw %class.btVector3, ptr %5, i32 0, i32 0
  %27 = getelementptr inbounds [4 x float], ptr %26, i64 0, i64 2
  %28 = load float, ptr %27, align 4, !tbaa !36
  %29 = fsub float %28, %25
  store float %29, ptr %27, align 4, !tbaa !36
  ret ptr %5
}

; Function Attrs: inlinehint mustprogress nounwind uwtable
define linkonce_odr dso_local noundef ptr @_ZNK9btVector3cvPKfEv(ptr noundef nonnull align 4 dereferenceable(16) %0) #5 comdat align 2 {
  %2 = alloca ptr, align 8
  store ptr %0, ptr %2, align 8, !tbaa !27
  %3 = load ptr, ptr %2, align 8
  %4 = getelementptr inbounds nuw %class.btVector3, ptr %3, i32 0, i32 0
  %5 = getelementptr inbounds [4 x float], ptr %4, i64 0, i64 0
  ret ptr %5
}

; Function Attrs: inlinehint mustprogress uwtable
define linkonce_odr dso_local { <2 x float>, <2 x float> } @_ZmlRK9btVector3RKf(ptr noundef nonnull align 4 dereferenceable(16) %0, ptr noundef nonnull align 4 dereferenceable(4) %1) #8 comdat {
  %3 = alloca %class.btVector3, align 4
  %4 = alloca ptr, align 8
  %5 = alloca ptr, align 8
  %6 = alloca float, align 4
  %7 = alloca float, align 4
  %8 = alloca float, align 4
  store ptr %0, ptr %4, align 8, !tbaa !27
  store ptr %1, ptr %5, align 8, !tbaa !56
  call void @llvm.lifetime.start.p0(i64 4, ptr %6) #13
  %9 = load ptr, ptr %4, align 8, !tbaa !27
  %10 = getelementptr inbounds nuw %class.btVector3, ptr %9, i32 0, i32 0
  %11 = getelementptr inbounds [4 x float], ptr %10, i64 0, i64 0
  %12 = load float, ptr %11, align 4, !tbaa !36
  %13 = load ptr, ptr %5, align 8, !tbaa !56
  %14 = load float, ptr %13, align 4, !tbaa !36
  %15 = fmul float %12, %14
  store float %15, ptr %6, align 4, !tbaa !36
  call void @llvm.lifetime.start.p0(i64 4, ptr %7) #13
  %16 = load ptr, ptr %4, align 8, !tbaa !27
  %17 = getelementptr inbounds nuw %class.btVector3, ptr %16, i32 0, i32 0
  %18 = getelementptr inbounds [4 x float], ptr %17, i64 0, i64 1
  %19 = load float, ptr %18, align 4, !tbaa !36
  %20 = load ptr, ptr %5, align 8, !tbaa !56
  %21 = load float, ptr %20, align 4, !tbaa !36
  %22 = fmul float %19, %21
  store float %22, ptr %7, align 4, !tbaa !36
  call void @llvm.lifetime.start.p0(i64 4, ptr %8) #13
  %23 = load ptr, ptr %4, align 8, !tbaa !27
  %24 = getelementptr inbounds nuw %class.btVector3, ptr %23, i32 0, i32 0
  %25 = getelementptr inbounds [4 x float], ptr %24, i64 0, i64 2
  %26 = load float, ptr %25, align 4, !tbaa !36
  %27 = load ptr, ptr %5, align 8, !tbaa !56
  %28 = load float, ptr %27, align 4, !tbaa !36
  %29 = fmul float %26, %28
  store float %29, ptr %8, align 4, !tbaa !36
  call void @_ZN9btVector3C2ERKfS1_S1_(ptr noundef nonnull align 4 dereferenceable(16) %3, ptr noundef nonnull align 4 dereferenceable(4) %6, ptr noundef nonnull align 4 dereferenceable(4) %7, ptr noundef nonnull align 4 dereferenceable(4) %8)
  call void @llvm.lifetime.end.p0(i64 4, ptr %8) #13
  call void @llvm.lifetime.end.p0(i64 4, ptr %7) #13
  call void @llvm.lifetime.end.p0(i64 4, ptr %6) #13
  %30 = getelementptr inbounds nuw %class.btVector3, ptr %3, i32 0, i32 0
  %31 = load { <2 x float>, <2 x float> }, ptr %30, align 4
  ret { <2 x float>, <2 x float> } %31
}

; Function Attrs: mustprogress nounwind uwtable
define linkonce_odr dso_local noundef ptr @_ZNK38btDeformableFaceRigidContactConstraint10getContactEv(ptr noundef nonnull align 8 dereferenceable(105) %0) #1 comdat align 2 {
  %2 = alloca ptr, align 8
  store ptr %0, ptr %2, align 8, !tbaa !129
  %3 = load ptr, ptr %2, align 8
  %4 = getelementptr inbounds nuw %class.btDeformableRigidContactConstraint, ptr %3, i32 0, i32 6
  %5 = load ptr, ptr %4, align 8, !tbaa !102
  ret ptr %5
}

; Function Attrs: mustprogress uwtable
define dso_local void @_ZN38btDeformableFaceRigidContactConstraint17applySplitImpulseERK9btVector3(ptr noundef nonnull align 8 dereferenceable(105) %0, ptr noundef nonnull align 4 dereferenceable(16) %1) unnamed_addr #3 align 2 {
  %3 = alloca ptr, align 8
  %4 = alloca ptr, align 8
  %5 = alloca ptr, align 8
  %6 = alloca %class.btVector3, align 4
  %7 = alloca ptr, align 8
  %8 = alloca ptr, align 8
  %9 = alloca ptr, align 8
  %10 = alloca ptr, align 8
  %11 = alloca ptr, align 8
  %12 = alloca ptr, align 8
  %13 = alloca ptr, align 8
  %14 = alloca %class.btVector3, align 4
  %15 = alloca %class.btVector3, align 4
  %16 = alloca %class.btVector3, align 4
  store ptr %0, ptr %3, align 8, !tbaa !129
  store ptr %1, ptr %4, align 8, !tbaa !27
  %17 = load ptr, ptr %3, align 8
  call void @llvm.lifetime.start.p0(i64 8, ptr %5) #13
  %18 = call noundef ptr @_ZNK38btDeformableFaceRigidContactConstraint10getContactEv(ptr noundef nonnull align 8 dereferenceable(105) %17)
  store ptr %18, ptr %5, align 8, !tbaa !131
  call void @llvm.lifetime.start.p0(i64 16, ptr %6) #13
  %19 = load ptr, ptr %4, align 8, !tbaa !27
  %20 = load ptr, ptr %5, align 8, !tbaa !131
  %21 = getelementptr inbounds nuw %"class.btSoftBody::DeformableRigidContact", ptr %20, i32 0, i32 3
  %22 = call { <2 x float>, <2 x float> } @_ZmlRK9btVector3RKf(ptr noundef nonnull align 4 dereferenceable(16) %19, ptr noundef nonnull align 4 dereferenceable(4) %21)
  %23 = getelementptr inbounds nuw %class.btVector3, ptr %6, i32 0, i32 0
  %24 = getelementptr inbounds nuw { <2 x float>, <2 x float> }, ptr %23, i32 0, i32 0
  %25 = extractvalue { <2 x float>, <2 x float> } %22, 0
  store <2 x float> %25, ptr %24, align 4
  %26 = getelementptr inbounds nuw { <2 x float>, <2 x float> }, ptr %23, i32 0, i32 1
  %27 = extractvalue { <2 x float>, <2 x float> } %22, 1
  store <2 x float> %27, ptr %26, align 4
  call void @llvm.lifetime.start.p0(i64 8, ptr %7) #13
  %28 = load ptr, ptr %5, align 8, !tbaa !131
  %29 = getelementptr inbounds nuw %"class.btSoftBody::DeformableFaceRigidContact", ptr %28, i32 0, i32 1
  %30 = load ptr, ptr %29, align 8, !tbaa !134
  store ptr %30, ptr %7, align 8, !tbaa !140
  call void @llvm.lifetime.start.p0(i64 8, ptr %8) #13
  %31 = load ptr, ptr %7, align 8, !tbaa !140
  %32 = getelementptr inbounds nuw %"struct.btSoftBody::Face", ptr %31, i32 0, i32 1
  %33 = getelementptr inbounds [3 x ptr], ptr %32, i64 0, i64 0
  %34 = load ptr, ptr %33, align 8, !tbaa !128
  %35 = getelementptr inbounds nuw %"struct.btSoftBody::Node", ptr %34, i32 0, i32 14
  store ptr %35, ptr %8, align 8, !tbaa !27
  call void @llvm.lifetime.start.p0(i64 8, ptr %9) #13
  %36 = load ptr, ptr %7, align 8, !tbaa !140
  %37 = getelementptr inbounds nuw %"struct.btSoftBody::Face", ptr %36, i32 0, i32 1
  %38 = getelementptr inbounds [3 x ptr], ptr %37, i64 0, i64 1
  %39 = load ptr, ptr %38, align 8, !tbaa !128
  %40 = getelementptr inbounds nuw %"struct.btSoftBody::Node", ptr %39, i32 0, i32 14
  store ptr %40, ptr %9, align 8, !tbaa !27
  call void @llvm.lifetime.start.p0(i64 8, ptr %10) #13
  %41 = load ptr, ptr %7, align 8, !tbaa !140
  %42 = getelementptr inbounds nuw %"struct.btSoftBody::Face", ptr %41, i32 0, i32 1
  %43 = getelementptr inbounds [3 x ptr], ptr %42, i64 0, i64 2
  %44 = load ptr, ptr %43, align 8, !tbaa !128
  %45 = getelementptr inbounds nuw %"struct.btSoftBody::Node", ptr %44, i32 0, i32 14
  store ptr %45, ptr %10, align 8, !tbaa !27
  call void @llvm.lifetime.start.p0(i64 8, ptr %11) #13
  %46 = load ptr, ptr %7, align 8, !tbaa !140
  %47 = getelementptr inbounds nuw %"struct.btSoftBody::Face", ptr %46, i32 0, i32 1
  %48 = getelementptr inbounds [3 x ptr], ptr %47, i64 0, i64 0
  %49 = load ptr, ptr %48, align 8, !tbaa !128
  %50 = getelementptr inbounds nuw %"struct.btSoftBody::Node", ptr %49, i32 0, i32 7
  store ptr %50, ptr %11, align 8, !tbaa !56
  call void @llvm.lifetime.start.p0(i64 8, ptr %12) #13
  %51 = load ptr, ptr %7, align 8, !tbaa !140
  %52 = getelementptr inbounds nuw %"struct.btSoftBody::Face", ptr %51, i32 0, i32 1
  %53 = getelementptr inbounds [3 x ptr], ptr %52, i64 0, i64 1
  %54 = load ptr, ptr %53, align 8, !tbaa !128
  %55 = getelementptr inbounds nuw %"struct.btSoftBody::Node", ptr %54, i32 0, i32 7
  store ptr %55, ptr %12, align 8, !tbaa !56
  call void @llvm.lifetime.start.p0(i64 8, ptr %13) #13
  %56 = load ptr, ptr %7, align 8, !tbaa !140
  %57 = getelementptr inbounds nuw %"struct.btSoftBody::Face", ptr %56, i32 0, i32 1
  %58 = getelementptr inbounds [3 x ptr], ptr %57, i64 0, i64 2
  %59 = load ptr, ptr %58, align 8, !tbaa !128
  %60 = getelementptr inbounds nuw %"struct.btSoftBody::Node", ptr %59, i32 0, i32 7
  store ptr %60, ptr %13, align 8, !tbaa !56
  %61 = load ptr, ptr %11, align 8, !tbaa !56
  %62 = load float, ptr %61, align 4, !tbaa !36
  %63 = fcmp ogt float %62, 0.000000e+00
  br i1 %63, label %64, label %77

64:                                               ; preds = %2
  call void @llvm.lifetime.start.p0(i64 16, ptr %14) #13
  %65 = load ptr, ptr %5, align 8, !tbaa !131
  %66 = getelementptr inbounds nuw %"class.btSoftBody::DeformableFaceRigidContact", ptr %65, i32 0, i32 4
  %67 = call noundef ptr @_ZNK9btVector3cvPKfEv(ptr noundef nonnull align 4 dereferenceable(16) %66)
  %68 = getelementptr inbounds float, ptr %67, i64 0
  %69 = call { <2 x float>, <2 x float> } @_ZmlRK9btVector3RKf(ptr noundef nonnull align 4 dereferenceable(16) %6, ptr noundef nonnull align 4 dereferenceable(4) %68)
  %70 = getelementptr inbounds nuw %class.btVector3, ptr %14, i32 0, i32 0
  %71 = getelementptr inbounds nuw { <2 x float>, <2 x float> }, ptr %70, i32 0, i32 0
  %72 = extractvalue { <2 x float>, <2 x float> } %69, 0
  store <2 x float> %72, ptr %71, align 4
  %73 = getelementptr inbounds nuw { <2 x float>, <2 x float> }, ptr %70, i32 0, i32 1
  %74 = extractvalue { <2 x float>, <2 x float> } %69, 1
  store <2 x float> %74, ptr %73, align 4
  %75 = load ptr, ptr %8, align 8, !tbaa !27
  %76 = call noundef nonnull align 4 dereferenceable(16) ptr @_ZN9btVector3mIERKS_(ptr noundef nonnull align 4 dereferenceable(16) %75, ptr noundef nonnull align 4 dereferenceable(16) %14)
  call void @llvm.lifetime.end.p0(i64 16, ptr %14) #13
  br label %77

77:                                               ; preds = %64, %2
  %78 = load ptr, ptr %12, align 8, !tbaa !56
  %79 = load float, ptr %78, align 4, !tbaa !36
  %80 = fcmp ogt float %79, 0.000000e+00
  br i1 %80, label %81, label %94

81:                                               ; preds = %77
  call void @llvm.lifetime.start.p0(i64 16, ptr %15) #13
  %82 = load ptr, ptr %5, align 8, !tbaa !131
  %83 = getelementptr inbounds nuw %"class.btSoftBody::DeformableFaceRigidContact", ptr %82, i32 0, i32 4
  %84 = call noundef ptr @_ZNK9btVector3cvPKfEv(ptr noundef nonnull align 4 dereferenceable(16) %83)
  %85 = getelementptr inbounds float, ptr %84, i64 1
  %86 = call { <2 x float>, <2 x float> } @_ZmlRK9btVector3RKf(ptr noundef nonnull align 4 dereferenceable(16) %6, ptr noundef nonnull align 4 dereferenceable(4) %85)
  %87 = getelementptr inbounds nuw %class.btVector3, ptr %15, i32 0, i32 0
  %88 = getelementptr inbounds nuw { <2 x float>, <2 x float> }, ptr %87, i32 0, i32 0
  %89 = extractvalue { <2 x float>, <2 x float> } %86, 0
  store <2 x float> %89, ptr %88, align 4
  %90 = getelementptr inbounds nuw { <2 x float>, <2 x float> }, ptr %87, i32 0, i32 1
  %91 = extractvalue { <2 x float>, <2 x float> } %86, 1
  store <2 x float> %91, ptr %90, align 4
  %92 = load ptr, ptr %9, align 8, !tbaa !27
  %93 = call noundef nonnull align 4 dereferenceable(16) ptr @_ZN9btVector3mIERKS_(ptr noundef nonnull align 4 dereferenceable(16) %92, ptr noundef nonnull align 4 dereferenceable(16) %15)
  call void @llvm.lifetime.end.p0(i64 16, ptr %15) #13
  br label %94

94:                                               ; preds = %81, %77
  %95 = load ptr, ptr %13, align 8, !tbaa !56
  %96 = load float, ptr %95, align 4, !tbaa !36
  %97 = fcmp ogt float %96, 0.000000e+00
  br i1 %97, label %98, label %111

98:                                               ; preds = %94
  call void @llvm.lifetime.start.p0(i64 16, ptr %16) #13
  %99 = load ptr, ptr %5, align 8, !tbaa !131
  %100 = getelementptr inbounds nuw %"class.btSoftBody::DeformableFaceRigidContact", ptr %99, i32 0, i32 4
  %101 = call noundef ptr @_ZNK9btVector3cvPKfEv(ptr noundef nonnull align 4 dereferenceable(16) %100)
  %102 = getelementptr inbounds float, ptr %101, i64 2
  %103 = call { <2 x float>, <2 x float> } @_ZmlRK9btVector3RKf(ptr noundef nonnull align 4 dereferenceable(16) %6, ptr noundef nonnull align 4 dereferenceable(4) %102)
  %104 = getelementptr inbounds nuw %class.btVector3, ptr %16, i32 0, i32 0
  %105 = getelementptr inbounds nuw { <2 x float>, <2 x float> }, ptr %104, i32 0, i32 0
  %106 = extractvalue { <2 x float>, <2 x float> } %103, 0
  store <2 x float> %106, ptr %105, align 4
  %107 = getelementptr inbounds nuw { <2 x float>, <2 x float> }, ptr %104, i32 0, i32 1
  %108 = extractvalue { <2 x float>, <2 x float> } %103, 1
  store <2 x float> %108, ptr %107, align 4
  %109 = load ptr, ptr %10, align 8, !tbaa !27
  %110 = call noundef nonnull align 4 dereferenceable(16) ptr @_ZN9btVector3mIERKS_(ptr noundef nonnull align 4 dereferenceable(16) %109, ptr noundef nonnull align 4 dereferenceable(16) %16)
  call void @llvm.lifetime.end.p0(i64 16, ptr %16) #13
  br label %111

111:                                              ; preds = %98, %94
  call void @llvm.lifetime.end.p0(i64 8, ptr %13) #13
  call void @llvm.lifetime.end.p0(i64 8, ptr %12) #13
  call void @llvm.lifetime.end.p0(i64 8, ptr %11) #13
  call void @llvm.lifetime.end.p0(i64 8, ptr %10) #13
  call void @llvm.lifetime.end.p0(i64 8, ptr %9) #13
  call void @llvm.lifetime.end.p0(i64 8, ptr %8) #13
  call void @llvm.lifetime.end.p0(i64 8, ptr %7) #13
  call void @llvm.lifetime.end.p0(i64 16, ptr %6) #13
  call void @llvm.lifetime.end.p0(i64 8, ptr %5) #13
  ret void
}