; Function Attrs: mustprogress nofree norecurse nosync nounwind willreturn memory(readwrite, inaccessiblemem: none) uwtable
define dso_local void @_ZN38btDeformableFaceRigidContactConstraint17applySplitImpulseERK9btVector3(ptr noundef nonnull readonly align 8 captures(none) dereferenceable(105) %0, ptr noundef nonnull readonly align 4 captures(none) dereferenceable(16) %1) unnamed_addr #7 align 2 {
  %3 = getelementptr inbounds nuw i8, ptr %0, i64 88
  %4 = load ptr, ptr %3, align 8, !tbaa !77
  %5 = getelementptr inbounds nuw i8, ptr %4, i64 128
  %6 = load float, ptr %1, align 4, !tbaa !37
  %7 = load float, ptr %5, align 4, !tbaa !37
  %8 = fmul float %6, %7
  %9 = getelementptr inbounds nuw i8, ptr %1, i64 4
  %10 = load float, ptr %9, align 4, !tbaa !37
  %11 = fmul float %7, %10
  %12 = getelementptr inbounds nuw i8, ptr %1, i64 8
  %13 = load float, ptr %12, align 4, !tbaa !37
  %14 = fmul float %7, %13
  %15 = getelementptr inbounds nuw i8, ptr %4, i64 848
  %16 = load ptr, ptr %15, align 8, !tbaa !103
  %17 = getelementptr inbounds nuw i8, ptr %16, i64 16
  %18 = load ptr, ptr %17, align 8, !tbaa !109
  %19 = getelementptr inbounds nuw i8, ptr %16, i64 24
  %20 = load ptr, ptr %19, align 8, !tbaa !109
  %21 = getelementptr inbounds nuw i8, ptr %20, i64 140
  %22 = getelementptr inbounds nuw i8, ptr %16, i64 32
  %23 = load ptr, ptr %22, align 8, !tbaa !109
  %24 = getelementptr inbounds nuw i8, ptr %23, i64 140
  %25 = getelementptr inbounds nuw i8, ptr %18, i64 112
  %26 = getelementptr inbounds nuw i8, ptr %20, i64 112
  %27 = getelementptr inbounds nuw i8, ptr %23, i64 112
  %28 = load float, ptr %25, align 4, !tbaa !37
  %29 = fcmp ogt float %28, 0.000000e+00
  br i1 %29, label %30, label %45

30:                                               ; preds = %2
  %31 = getelementptr inbounds nuw i8, ptr %18, i64 140
  %32 = getelementptr inbounds nuw i8, ptr %4, i64 888
  %33 = load float, ptr %32, align 4, !tbaa !37
  %34 = fmul float %8, %33
  %35 = fmul float %11, %33
  %36 = fmul float %14, %33
  %37 = load float, ptr %31, align 4, !tbaa !37
  %38 = fsub float %37, %34
  store float %38, ptr %31, align 4, !tbaa !37
  %39 = getelementptr inbounds nuw i8, ptr %18, i64 144
  %40 = load float, ptr %39, align 4, !tbaa !37
  %41 = fsub float %40, %35
  store float %41, ptr %39, align 4, !tbaa !37
  %42 = getelementptr inbounds nuw i8, ptr %18, i64 148
  %43 = load float, ptr %42, align 4, !tbaa !37
  %44 = fsub float %43, %36
  store float %44, ptr %42, align 4, !tbaa !37
  br label %45

45:                                               ; preds = %30, %2
  %46 = load float, ptr %26, align 4, !tbaa !37
  %47 = fcmp ogt float %46, 0.000000e+00
  br i1 %47, label %48, label %62

48:                                               ; preds = %45
  %49 = getelementptr inbounds nuw i8, ptr %4, i64 892
  %50 = load float, ptr %49, align 4, !tbaa !37
  %51 = fmul float %8, %50
  %52 = fmul float %11, %50
  %53 = fmul float %14, %50
  %54 = load float, ptr %21, align 4, !tbaa !37
  %55 = fsub float %54, %51
  store float %55, ptr %21, align 4, !tbaa !37
  %56 = getelementptr inbounds nuw i8, ptr %20, i64 144
  %57 = load float, ptr %56, align 4, !tbaa !37
  %58 = fsub float %57, %52
  store float %58, ptr %56, align 4, !tbaa !37
  %59 = getelementptr inbounds nuw i8, ptr %20, i64 148
  %60 = load float, ptr %59, align 4, !tbaa !37
  %61 = fsub float %60, %53
  store float %61, ptr %59, align 4, !tbaa !37
  br label %62

62:                                               ; preds = %48, %45
  %63 = load float, ptr %27, align 4, !tbaa !37
  %64 = fcmp ogt float %63, 0.000000e+00
  br i1 %64, label %65, label %79

65:                                               ; preds = %62
  %66 = getelementptr inbounds nuw i8, ptr %4, i64 896
  %67 = load float, ptr %66, align 4, !tbaa !37
  %68 = fmul float %8, %67
  %69 = fmul float %11, %67
  %70 = fmul float %14, %67
  %71 = load float, ptr %24, align 4, !tbaa !37
  %72 = fsub float %71, %68
  store float %72, ptr %24, align 4, !tbaa !37
  %73 = getelementptr inbounds nuw i8, ptr %23, i64 144
  %74 = load float, ptr %73, align 4, !tbaa !37
  %75 = fsub float %74, %69
  store float %75, ptr %73, align 4, !tbaa !37
  %76 = getelementptr inbounds nuw i8, ptr %23, i64 148
  %77 = load float, ptr %76, align 4, !tbaa !37
  %78 = fsub float %77, %70
  store float %78, ptr %76, align 4, !tbaa !37
  br label %79

79:                                               ; preds = %65, %62
  ret void
}